target datalayout = "e-m:e-p270:32:32-p271:32:32-p272:64:64-i64:64-i128:128-f80:128-n8:16:32:64-S128"
target triple = "x86_64-pc-linux-gnu"

%struct.DICTIONARY_ID = type { i64 }
%"class.std::__shared_count" = type { ptr }
%"class.toku::locktree" = type { ptr, %struct.DICTIONARY_ID, i32, [4 x i8], %"class.toku::comparator", ptr, ptr, ptr, ptr, %"struct.toku::lt_lock_request_info", i64, %"class.toku::range_buffer", i32, i64, i64 }
%"class.toku::comparator" = type <{ ptr, ptr, i8, [7 x i8] }>
%"struct.toku::lt_lock_request_info" = type <{ %"class.toku::omt", %"struct.std::atomic", [7 x i8], %"class.std::shared_ptr.0", i8, [7 x i8], %"struct.toku::lt_counters", %"struct.std::atomic.3", i64, %struct.toku_mutex_t, %struct.toku_cond_t, i8, [7 x i8] }>
%"class.toku::omt" = type { i8, i32, %union.anon }
%union.anon = type { %"struct.toku::omt<toku::lock_request *>::omt_array" }
%"struct.toku::omt<toku::lock_request *>::omt_array" = type { i32, i32, ptr }
%"struct.std::atomic" = type { %"struct.std::__atomic_base" }
%"struct.std::__atomic_base" = type { i8 }
%"class.std::shared_ptr.0" = type { %"class.std::__shared_ptr.1" }
%"class.std::__shared_ptr.1" = type { ptr, %"class.std::__shared_count" }
%"struct.toku::lt_counters" = type { i64, i64, i64, i64, i64 }
%"struct.std::atomic.3" = type { %"struct.std::__atomic_base.4" }
%"struct.std::__atomic_base.4" = type { i64 }
%struct.toku_mutex_t = type { %union.pthread_mutex_t, ptr }
%union.pthread_mutex_t = type { %struct.__pthread_mutex_s }
%struct.__pthread_mutex_s = type { i32, i32, i32, i32, i32, i16, i16, %struct.__pthread_internal_list }
%struct.__pthread_internal_list = type { ptr, ptr }
%struct.toku_cond_t = type { %union.pthread_cond_t, ptr }
%union.pthread_cond_t = type { %struct.__pthread_cond_s }
%struct.__pthread_cond_s = type { %union.__atomic_wide_counter, %union.__atomic_wide_counter, [2 x i32], [2 x i32], i32, i32, [2 x i32] }
%union.__atomic_wide_counter = type { i64 }
%"class.toku::range_buffer" = type <{ %class.memarena, i32, [4 x i8] }>
%class.memarena = type { %"struct.memarena::arena_chunk", ptr, i32, i64, i64 }
%"struct.memarena::arena_chunk" = type { ptr, i64, i64 }
%"class.toku::keyrange" = type <{ %struct.__toku_dbt, %struct.__toku_dbt, ptr, ptr, i8, [7 x i8] }>
%struct.__toku_dbt = type { ptr, i64, i64, i32 }
%"class.toku::concurrent_tree::locked_keyrange" = type { ptr, %"class.toku::keyrange", ptr }
%"class.toku::range_buffer::iterator" = type { %"class.memarena::chunk_iterator", ptr, i64, i64, i64 }
%"class.memarena::chunk_iterator" = type <{ ptr, i32, [4 x i8] }>
%"class.toku::range_buffer::iterator::record" = type { %"struct.toku::range_buffer::record_header", %struct.__toku_dbt, %struct.__toku_dbt }
%"struct.toku::range_buffer::record_header" = type { i8, i8, i8, i8, i16, i16, i8 }
%"class.toku::GrowableArray" = type { ptr, i64, i64 }
%"struct.toku::row_lock" = type { %"class.toku::keyrange", i64, i8, ptr }
%struct.copy_fn_obj = type { ptr }

; Function Attrs: mustprogress uwtable
define internal void @_ZNK4toku15concurrent_tree15locked_keyrange7iterateIZNS_L37iterate_and_get_overlapping_row_locksEPKS1_PNS_13GrowableArrayINS_8row_lockEEEE11copy_fn_objEEvPT_(ptr noundef nonnull align 8 dereferenceable(104) %0, ptr noundef %1) #0 align 2 {
  %3 = alloca ptr, align 8
  %4 = alloca ptr, align 8
  store ptr %0, ptr %3, align 8, !tbaa !99
  store ptr %1, ptr %4, align 8, !tbaa !214
  %5 = load ptr, ptr %3, align 8
  %6 = getelementptr inbounds nuw %"class.toku::concurrent_tree::locked_keyrange", ptr %5, i32 0, i32 2
  %7 = load ptr, ptr %6, align 8, !tbaa !117
  %8 = call noundef zeroext i1 @_ZN4toku8treenode8is_emptyEv(ptr noundef nonnull align 8 dereferenceable(202) %7)
  br i1 %8, label %14, label %9

9:                                                ; preds = %2
  %10 = getelementptr inbounds nuw %"class.toku::concurrent_tree::locked_keyrange", ptr %5, i32 0, i32 2
  %11 = load ptr, ptr %10, align 8, !tbaa !117
  %12 = getelementptr inbounds nuw %"class.toku::concurrent_tree::locked_keyrange", ptr %5, i32 0, i32 1
  %13 = load ptr, ptr %4, align 8, !tbaa !214
  call void @_ZN4toku8treenode17traverse_overlapsIZNS_L37iterate_and_get_overlapping_row_locksEPKNS_15concurrent_tree15locked_keyrangeEPNS_13GrowableArrayINS_8row_lockEEEE11copy_fn_objEEvRKNS_8keyrangeEPT_(ptr noundef nonnull align 8 dereferenceable(202) %11, ptr noundef nonnull align 8 dereferenceable(81) %12, ptr noundef %13)
  br label %14

14:                                               ; preds = %9, %2
  ret void
}

; Function Attrs: mustprogress nounwind uwtable
define linkonce_odr noundef i64 @_Z17toku_unsafe_fetchImET_PS0_(ptr noundef %0) #5 comdat {
  %2 = alloca ptr, align 8
  %3 = alloca i64, align 8
  store ptr %0, ptr %2, align 8, !tbaa !136
  call void @llvm.lifetime.start.p0(i64 8, ptr %3) #18
  %4 = load ptr, ptr %2, align 8, !tbaa !136
  %5 = load i64, ptr %4, align 8, !tbaa !46
  store i64 %5, ptr %3, align 8, !tbaa !46
  %6 = load i64, ptr %3, align 8, !tbaa !46
  call void @llvm.lifetime.end.p0(i64 8, ptr %3) #18
  ret i64 %6
}

; Function Attrs: mustprogress uwtable
define linkonce_odr void @_ZN4toku13GrowableArrayINS_8row_lockEE6deinitEv(ptr noundef nonnull align 8 dereferenceable(24) %0) #0 comdat align 2 {
  %2 = alloca ptr, align 8
  store ptr %0, ptr %2, align 8, !tbaa !120
  %3 = load ptr, ptr %2, align 8
  %4 = getelementptr inbounds nuw %"class.toku::GrowableArray", ptr %3, i32 0, i32 0
  %5 = load ptr, ptr %4, align 8, !tbaa !122
  call void @_Z9toku_freePv(ptr noundef %5)
  %6 = getelementptr inbounds nuw %"class.toku::GrowableArray", ptr %3, i32 0, i32 0
  store ptr null, ptr %6, align 8, !tbaa !122
  %7 = getelementptr inbounds nuw %"class.toku::GrowableArray", ptr %3, i32 0, i32 1
  store i64 0, ptr %7, align 8, !tbaa !125
  %8 = getelementptr inbounds nuw %"class.toku::GrowableArray", ptr %3, i32 0, i32 2
  store i64 0, ptr %8, align 8, !tbaa !126
  ret void
}

; Function Attrs: mustprogress nounwind uwtable
define linkonce_odr void @_ZNK4toku13GrowableArrayINS_8row_lockEE15fetch_uncheckedEm(ptr dead_on_unwind noalias writable sret(%"struct.toku::row_lock") align 8 %0, ptr noundef nonnull align 8 dereferenceable(24) %1, i64 noundef %2) #5 comdat align 2 {
  %4 = alloca ptr, align 8
  %5 = alloca i64, align 8
  store ptr %1, ptr %4, align 8, !tbaa !120
  store i64 %2, ptr %5, align 8, !tbaa !46
  %6 = load ptr, ptr %4, align 8
  %7 = getelementptr inbounds nuw %"class.toku::GrowableArray", ptr %6, i32 0, i32 0
  %8 = load ptr, ptr %7, align 8, !tbaa !122
  %9 = load i64, ptr %5, align 8, !tbaa !46
  %10 = getelementptr inbounds nuw %"struct.toku::row_lock", ptr %8, i64 %9
  call void @llvm.memcpy.p0.p0.i64(ptr align 8 %0, ptr align 8 %10, i64 112, i1 false), !tbaa.struct !140
  ret void
}

; Function Attrs: mustprogress nounwind uwtable
define linkonce_odr noundef i64 @_ZNK4toku13GrowableArrayINS_8row_lockEE8get_sizeEv(ptr noundef nonnull align 8 dereferenceable(24) %0) #5 comdat align 2 {
  %2 = alloca ptr, align 8
  store ptr %0, ptr %2, align 8, !tbaa !120
  %3 = load ptr, ptr %2, align 8
  %4 = getelementptr inbounds nuw %"class.toku::GrowableArray", ptr %3, i32 0, i32 1
  %5 = load i64, ptr %4, align 8, !tbaa !125
  ret i64 %5
}

; Function Attrs: mustprogress uwtable
define internal void @_ZN4tokuL37iterate_and_get_overlapping_row_locksEPKNS_15concurrent_tree15locked_keyrangeEPNS_13GrowableArrayINS_8row_lockEEE(ptr noundef %0, ptr noundef %1) #0 {
  %3 = alloca ptr, align 8
  %4 = alloca ptr, align 8
  %5 = alloca %struct.copy_fn_obj, align 8
  store ptr %0, ptr %3, align 8, !tbaa !99
  store ptr %1, ptr %4, align 8, !tbaa !120
  call void @llvm.lifetime.start.p0(i64 8, ptr %5) #18
  %6 = load ptr, ptr %4, align 8, !tbaa !120
  %7 = getelementptr inbounds nuw %struct.copy_fn_obj, ptr %5, i32 0, i32 0
  store ptr %6, ptr %7, align 8, !tbaa !127
  %8 = load ptr, ptr %3, align 8, !tbaa !99
  call void @_ZNK4toku15concurrent_tree15locked_keyrange7iterateIZNS_L37iterate_and_get_overlapping_row_locksEPKS1_PNS_13GrowableArrayINS_8row_lockEEEE11copy_fn_objEEvPT_(ptr noundef nonnull align 8 dereferenceable(104) %8, ptr noundef %5)
  call void @llvm.lifetime.end.p0(i64 8, ptr %5) #18
  ret void
}

; Function Attrs: mustprogress nounwind uwtable
define linkonce_odr void @_ZN4toku13GrowableArrayINS_8row_lockEE4initEv(ptr noundef nonnull align 8 dereferenceable(24) %0) #5 comdat align 2 {
  %2 = alloca ptr, align 8
  store ptr %0, ptr %2, align 8, !tbaa !120
  %3 = load ptr, ptr %2, align 8
  %4 = getelementptr inbounds nuw %"class.toku::GrowableArray", ptr %3, i32 0, i32 0
  store ptr null, ptr %4, align 8, !tbaa !122
  %5 = getelementptr inbounds nuw %"class.toku::GrowableArray", ptr %3, i32 0, i32 1
  store i64 0, ptr %5, align 8, !tbaa !125
  %6 = getelementptr inbounds nuw %"class.toku::GrowableArray", ptr %3, i32 0, i32 2
  store i64 0, ptr %6, align 8, !tbaa !126
  ret void
}

; Function Attrs: mustprogress nounwind uwtable
define linkonce_odr noundef zeroext i1 @_ZNK4toku12range_buffer8iterator6record18get_exclusive_flagEv(ptr noundef nonnull align 8 dereferenceable(80) %0) #5 comdat align 2 {
  %2 = alloca ptr, align 8
  store ptr %0, ptr %2, align 8, !tbaa !109
  %3 = load ptr, ptr %2, align 8
  %4 = getelementptr inbounds nuw %"class.toku::range_buffer::iterator::record", ptr %3, i32 0, i32 0
  %5 = getelementptr inbounds nuw %"struct.toku::range_buffer::record_header", ptr %4, i32 0, i32 6
  %6 = load i8, ptr %5, align 8, !tbaa !111, !range !68, !noundef !69
  %7 = trunc i8 %6 to i1
  ret i1 %7
}

; Function Attrs: mustprogress uwtable
define linkonce_odr noundef i64 @_Z17toku_unsafe_fetchImET_RS0_(ptr noundef nonnull align 8 dereferenceable(8) %0) #0 comdat {
  %2 = alloca ptr, align 8
  store ptr %0, ptr %2, align 8, !tbaa !136
  %3 = load ptr, ptr %2, align 8, !tbaa !136
  %4 = call noundef i64 @_Z17toku_unsafe_fetchImET_PS0_(ptr noundef %3)
  ret i64 %4
}

; Function Attrs: mustprogress uwtable
define void @_ZN4toku8locktree10dump_locksEPvPFvS1_PK10__toku_dbtS4_mbP11TxnidVectorE(ptr noundef nonnull align 8 dereferenceable(400) %0, ptr noundef %1, ptr noundef %2) #0 align 2 {
  %4 = alloca ptr, align 8
  %5 = alloca ptr, align 8
  %6 = alloca ptr, align 8
  %7 = alloca %"class.toku::concurrent_tree::locked_keyrange", align 8
  %8 = alloca %"class.toku::keyrange", align 8
  %9 = alloca i64, align 8
  %10 = alloca %"class.toku::range_buffer::iterator", align 8
  %11 = alloca %"class.toku::range_buffer::iterator::record", align 8
  %12 = alloca %"class.toku::GrowableArray", align 8
  %13 = alloca i64, align 8
  %14 = alloca i64, align 8
  %15 = alloca %"struct.toku::row_lock", align 8
  store ptr %0, ptr %4, align 8, !tbaa !4
  store ptr %1, ptr %5, align 8, !tbaa !55
  store ptr %2, ptr %6, align 8, !tbaa !55
  %16 = load ptr, ptr %4, align 8
  call void @llvm.lifetime.start.p0(i64 104, ptr %7) #18
  call void @llvm.lifetime.start.p0(i64 88, ptr %8) #18
  %17 = call noundef ptr @_Z26toku_dbt_negative_infinityv()
  %18 = call noundef ptr @_Z26toku_dbt_positive_infinityv()
  call void @_ZN4toku8keyrange6createEPK10__toku_dbtS3_(ptr noundef nonnull align 8 dereferenceable(81) %8, ptr noundef %17, ptr noundef %18)
  %19 = getelementptr inbounds nuw %"class.toku::locktree", ptr %16, i32 0, i32 7
  %20 = load ptr, ptr %19, align 8, !tbaa !49
  call void @_ZN4toku15concurrent_tree15locked_keyrange7prepareEPS0_(ptr noundef nonnull align 8 dereferenceable(104) %7, ptr noundef %20)
  call void @_ZN4toku15concurrent_tree15locked_keyrange7acquireERKNS_8keyrangeE(ptr noundef nonnull align 8 dereferenceable(104) %7, ptr noundef nonnull align 8 dereferenceable(81) %8)
  call void @llvm.lifetime.start.p0(i64 8, ptr %9) #18
  %21 = getelementptr inbounds nuw %"class.toku::locktree", ptr %16, i32 0, i32 10
  %22 = call noundef i64 @_Z17toku_unsafe_fetchImET_RS0_(ptr noundef nonnull align 8 dereferenceable(8) %21)
  store i64 %22, ptr %9, align 8, !tbaa !46
  %23 = icmp ne i64 %22, 0
  br i1 %23, label %24, label %37

24:                                               ; preds = %3
  call void @llvm.lifetime.start.p0(i64 48, ptr %10) #18
  %25 = getelementptr inbounds nuw %"class.toku::locktree", ptr %16, i32 0, i32 11
  call void @_ZN4toku12range_buffer8iteratorC1EPKS0_(ptr noundef nonnull align 8 dereferenceable(48) %10, ptr noundef %25)
  call void @llvm.lifetime.start.p0(i64 80, ptr %11) #18
  br label %26

26:                                               ; preds = %28, %24
  %27 = call noundef zeroext i1 @_ZN4toku12range_buffer8iterator7currentEPNS1_6recordE(ptr noundef nonnull align 8 dereferenceable(48) %10, ptr noundef %11)
  br i1 %27, label %28, label %36

28:                                               ; preds = %26
  %29 = load ptr, ptr %6, align 8, !tbaa !55
  %30 = load ptr, ptr %5, align 8, !tbaa !55
  %31 = call noundef ptr @_ZNK4toku12range_buffer8iterator6record12get_left_keyEv(ptr noundef nonnull align 8 dereferenceable(80) %11)
  %32 = call noundef ptr @_ZNK4toku12range_buffer8iterator6record13get_right_keyEv(ptr noundef nonnull align 8 dereferenceable(80) %11)
  %33 = load i64, ptr %9, align 8, !tbaa !46
  %34 = call noundef zeroext i1 @_ZNK4toku12range_buffer8iterator6record18get_exclusive_flagEv(ptr noundef nonnull align 8 dereferenceable(80) %11)
  %35 = xor i1 %34, true
  call void %29(ptr noundef %30, ptr noundef %31, ptr noundef %32, i64 noundef %33, i1 noundef zeroext %35, ptr noundef null)
  call void @_ZN4toku12range_buffer8iterator4nextEv(ptr noundef nonnull align 8 dereferenceable(48) %10)
  br label %26, !llvm.loop !141

36:                                               ; preds = %26
  call void @llvm.lifetime.end.p0(i64 80, ptr %11) #18
  call void @llvm.lifetime.end.p0(i64 48, ptr %10) #18
  br label %63

37:                                               ; preds = %3
  call void @llvm.lifetime.start.p0(i64 24, ptr %12) #18
  call void @_ZN4toku13GrowableArrayINS_8row_lockEE4initEv(ptr noundef nonnull align 8 dereferenceable(24) %12)
  call void @_ZN4tokuL37iterate_and_get_overlapping_row_locksEPKNS_15concurrent_tree15locked_keyrangeEPNS_13GrowableArrayINS_8row_lockEEE(ptr noundef %7, ptr noundef %12)
  call void @llvm.lifetime.start.p0(i64 8, ptr %13) #18
  %38 = call noundef i64 @_ZNK4toku13GrowableArrayINS_8row_lockEE8get_sizeEv(ptr noundef nonnull align 8 dereferenceable(24) %12)
  store i64 %38, ptr %13, align 8, !tbaa !46
  call void @llvm.lifetime.start.p0(i64 8, ptr %14) #18
  store i64 0, ptr %14, align 8, !tbaa !46
  br label %39

39:                                               ; preds = %59, %37
  %40 = load i64, ptr %14, align 8, !tbaa !46
  %41 = load i64, ptr %13, align 8, !tbaa !46
  %42 = icmp ult i64 %40, %41
  br i1 %42, label %44, label %43

43:                                               ; preds = %39
  call void @llvm.lifetime.end.p0(i64 8, ptr %14) #18
  br label %62

44:                                               ; preds = %39
  call void @llvm.lifetime.start.p0(i64 112, ptr %15) #18
  %45 = load i64, ptr %14, align 8, !tbaa !46
  call void @_ZNK4toku13GrowableArrayINS_8row_lockEE15fetch_uncheckedEm(ptr dead_on_unwind writable sret(%"struct.toku::row_lock") align 8 %15, ptr noundef nonnull align 8 dereferenceable(24) %12, i64 noundef %45)
  %46 = load ptr, ptr %6, align 8, !tbaa !55
  %47 = load ptr, ptr %5, align 8, !tbaa !55
  %48 = getelementptr inbounds nuw %"struct.toku::row_lock", ptr %15, i32 0, i32 0
  %49 = call noundef ptr @_ZNK4toku8keyrange12get_left_keyEv(ptr noundef nonnull align 8 dereferenceable(81) %48)
  %50 = getelementptr inbounds nuw %"struct.toku::row_lock", ptr %15, i32 0, i32 0
  %51 = call noundef ptr @_ZNK4toku8keyrange13get_right_keyEv(ptr noundef nonnull align 8 dereferenceable(81) %50)
  %52 = getelementptr inbounds nuw %"struct.toku::row_lock", ptr %15, i32 0, i32 1
  %53 = load i64, ptr %52, align 8, !tbaa !101
  %54 = getelementptr inbounds nuw %"struct.toku::row_lock", ptr %15, i32 0, i32 2
  %55 = load i8, ptr %54, align 8, !tbaa !106, !range !68, !noundef !69
  %56 = trunc i8 %55 to i1
  %57 = getelementptr inbounds nuw %"struct.toku::row_lock", ptr %15, i32 0, i32 3
  %58 = load ptr, ptr %57, align 8, !tbaa !107
  call void %46(ptr noundef %47, ptr noundef %49, ptr noundef %51, i64 noundef %53, i1 noundef zeroext %56, ptr noundef %58)
  call void @llvm.lifetime.end.p0(i64 112, ptr %15) #18
  br label %59

59:                                               ; preds = %44
  %60 = load i64, ptr %14, align 8, !tbaa !46
  %61 = add i64 %60, 1
  store i64 %61, ptr %14, align 8, !tbaa !46
  br label %39, !llvm.loop !142

62:                                               ; preds = %43
  call void @_ZN4toku13GrowableArrayINS_8row_lockEE6deinitEv(ptr noundef nonnull align 8 dereferenceable(24) %12)
  call void @llvm.lifetime.end.p0(i64 8, ptr %13) #18
  call void @llvm.lifetime.end.p0(i64 24, ptr %12) #18
  br label %63

63:                                               ; preds = %62, %36
  call void @_ZN4toku15concurrent_tree15locked_keyrange7releaseEv(ptr noundef nonnull align 8 dereferenceable(104) %7)
  call void @_ZN4toku8keyrange7destroyEv(ptr noundef nonnull align 8 dereferenceable(81) %8)
  call void @llvm.lifetime.end.p0(i64 8, ptr %9) #18
  call void @llvm.lifetime.end.p0(i64 88, ptr %8) #18
  call void @llvm.lifetime.end.p0(i64 104, ptr %7) #18
  ret void
}