; Function Attrs: mustprogress uwtable
define void @_ZN4toku8locktree10dump_locksEPvPFvS1_PK10__toku_dbtS4_mbP11TxnidVectorE(ptr noundef nonnull align 8 dereferenceable(400) %0, ptr noundef %1, ptr noundef readonly captures(none) %2) local_unnamed_addr #0 align 2 {
  %4 = alloca %struct.copy_fn_obj, align 8
  %5 = alloca %"class.toku::concurrent_tree::locked_keyrange", align 8
  %6 = alloca %"class.toku::keyrange", align 8
  %7 = alloca %"class.toku::range_buffer::iterator", align 8
  %8 = alloca %"class.toku::range_buffer::iterator::record", align 8
  %9 = alloca %"class.toku::GrowableArray", align 8
  %10 = alloca %"struct.toku::row_lock", align 8
  call void @llvm.lifetime.start.p0(i64 104, ptr nonnull %5) #21
  call void @llvm.lifetime.start.p0(i64 88, ptr nonnull %6) #21
  %11 = tail call noundef ptr @_Z26toku_dbt_negative_infinityv()
  %12 = tail call noundef ptr @_Z26toku_dbt_positive_infinityv()
  call void @_ZN4toku8keyrange6createEPK10__toku_dbtS3_(ptr noundef nonnull align 8 dereferenceable(81) %6, ptr noundef %11, ptr noundef %12)
  %13 = getelementptr inbounds nuw i8, ptr %0, i64 64
  %14 = load ptr, ptr %13, align 8, !tbaa !44
  call void @_ZN4toku15concurrent_tree15locked_keyrange7prepareEPS0_(ptr noundef nonnull align 8 dereferenceable(104) %5, ptr noundef %14)
  call void @_ZN4toku15concurrent_tree15locked_keyrange7acquireERKNS_8keyrangeE(ptr noundef nonnull align 8 dereferenceable(104) %5, ptr noundef nonnull align 8 dereferenceable(81) %6)
  %15 = getelementptr inbounds nuw i8, ptr %0, i64 304
  %16 = load i64, ptr %15, align 8, !tbaa !38
  %.not = icmp eq i64 %16, 0
  br i1 %.not, label %28, label %17

17:                                               ; preds = %3
  call void @llvm.lifetime.start.p0(i64 48, ptr nonnull %7) #21
  %18 = getelementptr inbounds nuw i8, ptr %0, i64 312
  call void @_ZN4toku12range_buffer8iteratorC1EPKS0_(ptr noundef nonnull align 8 dereferenceable(48) %7, ptr noundef nonnull %18)
  call void @llvm.lifetime.start.p0(i64 80, ptr nonnull %8) #21
  %19 = call noundef zeroext i1 @_ZN4toku12range_buffer8iterator7currentEPNS1_6recordE(ptr noundef nonnull align 8 dereferenceable(48) %7, ptr noundef nonnull %8)
  br i1 %19, label %.lr.ph, label %._crit_edge

.lr.ph:                                           ; preds = %17
  %20 = getelementptr inbounds nuw i8, ptr %8, i64 8
  br label %21

21:                                               ; preds = %.lr.ph, %21
  %22 = call noundef ptr @_ZNK4toku12range_buffer8iterator6record12get_left_keyEv(ptr noundef nonnull align 8 dereferenceable(80) %8)
  %23 = call noundef ptr @_ZNK4toku12range_buffer8iterator6record13get_right_keyEv(ptr noundef nonnull align 8 dereferenceable(80) %8)
  %24 = load i8, ptr %20, align 8, !tbaa !71, !range !67, !noundef !68
  %25 = trunc nuw i8 %24 to i1
  %26 = xor i1 %25, true
  call void %2(ptr noundef %1, ptr noundef %22, ptr noundef %23, i64 noundef %16, i1 noundef zeroext %26, ptr noundef null)
  call void @_ZN4toku12range_buffer8iterator4nextEv(ptr noundef nonnull align 8 dereferenceable(48) %7)
  %27 = call noundef zeroext i1 @_ZN4toku12range_buffer8iterator7currentEPNS1_6recordE(ptr noundef nonnull align 8 dereferenceable(48) %7, ptr noundef nonnull %8)
  br i1 %27, label %21, label %._crit_edge, !llvm.loop !128

._crit_edge:                                      ; preds = %21, %17
  call void @llvm.lifetime.end.p0(i64 80, ptr nonnull %8) #21
  call void @llvm.lifetime.end.p0(i64 48, ptr nonnull %7) #21
  br label %51

28:                                               ; preds = %3
  call void @llvm.lifetime.start.p0(i64 24, ptr nonnull %9) #21
  call void @llvm.memset.p0.i64(ptr noundef nonnull align 8 dereferenceable(24) %9, i8 0, i64 24, i1 false)
  call void @llvm.lifetime.start.p0(i64 8, ptr nonnull %4) #21
  store ptr %9, ptr %4, align 8, !tbaa !89
  %29 = getelementptr inbounds nuw i8, ptr %5, i64 96
  %30 = load ptr, ptr %29, align 8, !tbaa !81
  %31 = call noundef zeroext i1 @_ZN4toku8treenode8is_emptyEv(ptr noundef nonnull align 8 dereferenceable(202) %30)
  br i1 %31, label %_ZN4tokuL37iterate_and_get_overlapping_row_locksEPKNS_15concurrent_tree15locked_keyrangeEPNS_13GrowableArrayINS_8row_lockEEE.exit, label %32

32:                                               ; preds = %28
  %33 = load ptr, ptr %29, align 8, !tbaa !81
  %34 = getelementptr inbounds nuw i8, ptr %5, i64 8
  call fastcc void @_ZN4toku8treenode17traverse_overlapsIZNS_L37iterate_and_get_overlapping_row_locksEPKNS_15concurrent_tree15locked_keyrangeEPNS_13GrowableArrayINS_8row_lockEEEE11copy_fn_objEEvRKNS_8keyrangeEPT_(ptr noundef nonnull align 8 dereferenceable(202) %33, ptr noundef nonnull align 8 dereferenceable(81) %34, ptr noundef nonnull %4)
  br label %_ZN4tokuL37iterate_and_get_overlapping_row_locksEPKNS_15concurrent_tree15locked_keyrangeEPNS_13GrowableArrayINS_8row_lockEEE.exit

_ZN4tokuL37iterate_and_get_overlapping_row_locksEPKNS_15concurrent_tree15locked_keyrangeEPNS_13GrowableArrayINS_8row_lockEEE.exit: ; preds = %28, %32
  call void @llvm.lifetime.end.p0(i64 8, ptr nonnull %4) #21
  %35 = getelementptr inbounds nuw i8, ptr %9, i64 8
  %36 = load i64, ptr %35, align 8, !tbaa !109
  %.not13 = icmp eq i64 %36, 0
  br i1 %.not13, label %._crit_edge12, label %.lr.ph11

.lr.ph11:                                         ; preds = %_ZN4tokuL37iterate_and_get_overlapping_row_locksEPKNS_15concurrent_tree15locked_keyrangeEPNS_13GrowableArrayINS_8row_lockEEE.exit
  %37 = getelementptr inbounds nuw i8, ptr %10, i64 88
  %38 = getelementptr inbounds nuw i8, ptr %10, i64 96
  %39 = getelementptr inbounds nuw i8, ptr %10, i64 104
  br label %41

._crit_edge12:                                    ; preds = %41, %_ZN4tokuL37iterate_and_get_overlapping_row_locksEPKNS_15concurrent_tree15locked_keyrangeEPNS_13GrowableArrayINS_8row_lockEEE.exit
  %40 = load ptr, ptr %9, align 8, !tbaa !112
  call void @_Z9toku_freePv(ptr noundef %40)
  call void @llvm.lifetime.end.p0(i64 24, ptr nonnull %9) #21
  br label %51

41:                                               ; preds = %.lr.ph11, %41
  %.010 = phi i64 [ 0, %.lr.ph11 ], [ %50, %41 ]
  call void @llvm.lifetime.start.p0(i64 112, ptr nonnull %10) #21
  %42 = load ptr, ptr %9, align 8, !tbaa !112, !noalias !129
  %43 = getelementptr inbounds nuw %"struct.toku::row_lock", ptr %42, i64 %.010
  call void @llvm.memcpy.p0.p0.i64(ptr noundef nonnull align 8 dereferenceable(112) %10, ptr noundef nonnull align 8 dereferenceable(112) %43, i64 112, i1 false), !tbaa.struct !126
  %44 = call noundef ptr @_ZNK4toku8keyrange12get_left_keyEv(ptr noundef nonnull align 8 dereferenceable(81) %10)
  %45 = call noundef ptr @_ZNK4toku8keyrange13get_right_keyEv(ptr noundef nonnull align 8 dereferenceable(81) %10)
  %46 = load i64, ptr %37, align 8, !tbaa !104
  %47 = load i8, ptr %38, align 8, !tbaa !107, !range !67, !noundef !68
  %48 = trunc nuw i8 %47 to i1
  %49 = load ptr, ptr %39, align 8, !tbaa !108
  call void %2(ptr noundef %1, ptr noundef %44, ptr noundef %45, i64 noundef %46, i1 noundef zeroext %48, ptr noundef %49)
  call void @llvm.lifetime.end.p0(i64 112, ptr nonnull %10) #21
  %50 = add nuw i64 %.010, 1
  %exitcond.not = icmp eq i64 %50, %36
  br i1 %exitcond.not, label %._crit_edge12, label %41, !llvm.loop !132

51:                                               ; preds = %._crit_edge12, %._crit_edge
  call void @_ZN4toku15concurrent_tree15locked_keyrange7releaseEv(ptr noundef nonnull align 8 dereferenceable(104) %5)
  call void @_ZN4toku8keyrange7destroyEv(ptr noundef nonnull align 8 dereferenceable(81) %6)
  call void @llvm.lifetime.end.p0(i64 88, ptr nonnull %6) #21
  call void @llvm.lifetime.end.p0(i64 104, ptr nonnull %5) #21
  ret void
}